; Function Attrs: mustprogress nounwind uwtable
define void @_ZN19OpenColorIO_v2_5dev16GpuShaderCreatorD2Ev(ptr noundef nonnull align 8 captures(none) dereferenceable(16) initializes((0, 8)) %0) unnamed_addr #3 align 2 {
  store ptr getelementptr inbounds nuw inrange(-16, 192) (i8, ptr @_ZTVN19OpenColorIO_v2_5dev16GpuShaderCreatorE, i64 16), ptr %0, align 8, !tbaa !3
  %2 = getelementptr inbounds nuw i8, ptr %0, i64 8
  %3 = load ptr, ptr %2, align 8, !tbaa !6
  %4 = icmp eq ptr %3, null
  br i1 %4, label %6, label %5

5:                                                ; preds = %1
  tail call void @_ZN19OpenColorIO_v2_5dev16GpuShaderCreator4ImplD2Ev(ptr noundef nonnull align 8 dereferenceable(472) %3) #26
  tail call void @_ZdlPvm(ptr noundef nonnull %3, i64 noundef 472) #25
  br label %6

6:                                                ; preds = %5, %1
  store ptr null, ptr %2, align 8, !tbaa !6
  ret void
}